; Function Attrs: mustprogress nofree norecurse nosync nounwind willreturn memory(read, inaccessiblemem: none) uwtable
define dso_local noundef i32 @_ZNK4llvm5APInt23countPopulationSlowCaseEv(ptr noundef nonnull readonly align 8 captures(none) dereferenceable(12) %0) local_unnamed_addr #3 align 2 {
  %2 = getelementptr inbounds nuw i8, ptr %0, i64 8
  %3 = load i32, ptr %2, align 8
  %.not = icmp eq i32 %3, 0
  br i1 %.not, label %._crit_edge, label %.lr.ph

.lr.ph:                                           ; preds = %1
  %4 = zext i32 %3 to i64
  %5 = add nuw nsw i64 %4, 63
  %6 = lshr i64 %5, 6
  %7 = load ptr, ptr %0, align 8
  br label %8

8:                                                ; preds = %.lr.ph, %8
  %indvars.iv = phi i64 [ 0, %.lr.ph ], [ %indvars.iv.next, %8 ]
  %.056 = phi i32 [ 0, %.lr.ph ], [ %13, %8 ]
  %9 = getelementptr inbounds nuw i64, ptr %7, i64 %indvars.iv
  %10 = load i64, ptr %9, align 8
  %11 = tail call range(i64 0, 65) i64 @llvm.ctpop.i64(i64 %10)
  %12 = trunc nuw nsw i64 %11 to i32
  %13 = add i32 %.056, %12
  %indvars.iv.next = add nuw nsw i64 %indvars.iv, 1
  %exitcond.not = icmp eq i64 %indvars.iv.next, %6
  br i1 %exitcond.not, label %._crit_edge, label %8, !llvm.loop !31

._crit_edge:                                      ; preds = %8, %1
  %.05.lcssa = phi i32 [ 0, %1 ], [ %13, %8 ]
  ret i32 %.05.lcssa
}